target datalayout = "e-m:e-p270:32:32-p271:32:32-p272:64:64-i64:64-i128:128-f80:128-n8:16:32:64-S128"
target triple = "x86_64-pc-linux-gnu"

; Function Attrs: inlinehint nounwind uwtable
define internal i64 @mbedtls_ct_bool(i64 noundef %0) #2 {
  %2 = alloca i64, align 8
  %3 = alloca i64, align 8
  store i64 %0, ptr %2, align 8, !tbaa !7
  call void @llvm.lifetime.start.p0(i64 8, ptr %3) #5
  %4 = load i64, ptr %2, align 8, !tbaa !7
  %5 = call i64 asm sideeffect "mov  $1, $0                                \0A\09neg  $0                                      \0A\09or   $1, $0                                \0A\09sar  $$63, $0                                 \0A\09", "=&{ax},{di},~{dirflag},~{fpsr},~{flags}"(i64 %4) #5, !srcloc !27
  store i64 %5, ptr %3, align 8, !tbaa !7
  %6 = load i64, ptr %3, align 8, !tbaa !7
  call void @llvm.lifetime.end.p0(i64 8, ptr %3) #5
  ret i64 %6
}

; Function Attrs: alwaysinline nounwind uwtable
define internal void @mbedtls_put_unaligned_uint64(ptr noundef %0, i64 noundef %1) #3 {
  %3 = alloca ptr, align 8
  %4 = alloca i64, align 8
  store ptr %0, ptr %3, align 8, !tbaa !3
  store i64 %1, ptr %4, align 8, !tbaa !7
  %5 = load ptr, ptr %3, align 8, !tbaa !3
  call void @llvm.memcpy.p0.p0.i64(ptr align 1 %5, ptr align 8 %4, i64 8, i1 false)
  ret void
}

; Function Attrs: alwaysinline nounwind uwtable
define internal i64 @mbedtls_get_unaligned_uint64(ptr noundef %0) #3 {
  %2 = alloca ptr, align 8
  %3 = alloca i64, align 8
  store ptr %0, ptr %2, align 8, !tbaa !3
  call void @llvm.lifetime.start.p0(i64 8, ptr %3) #5
  %4 = load ptr, ptr %2, align 8, !tbaa !3
  call void @llvm.memcpy.p0.p0.i64(ptr align 8 %3, ptr align 1 %4, i64 8, i1 false)
  %5 = load i64, ptr %3, align 8, !tbaa !7
  call void @llvm.lifetime.end.p0(i64 8, ptr %3) #5
  ret i64 %5
}

; Function Attrs: inlinehint nounwind uwtable
define internal i64 @mbedtls_ct_compiler_opaque(i64 noundef %0) #2 {
  %2 = alloca i64, align 8
  store i64 %0, ptr %2, align 8, !tbaa !7
  %3 = load i64, ptr %2, align 8, !tbaa !7
  %4 = call i64 asm sideeffect "", "=r,0,~{dirflag},~{fpsr},~{flags}"(i64 %3) #5, !srcloc !22
  store i64 %4, ptr %2, align 8, !tbaa !7
  %5 = load i64, ptr %2, align 8, !tbaa !7
  ret i64 %5
}

; Function Attrs: inlinehint nounwind uwtable
define internal i64 @mbedtls_ct_uint_ne(i64 noundef %0, i64 noundef %1) #2 {
  %3 = alloca i64, align 8
  %4 = alloca i64, align 8
  %5 = alloca i64, align 8
  store i64 %0, ptr %3, align 8, !tbaa !7
  store i64 %1, ptr %4, align 8, !tbaa !7
  call void @llvm.lifetime.start.p0(i64 8, ptr %5) #5
  %6 = load i64, ptr %3, align 8, !tbaa !7
  %7 = call i64 @mbedtls_ct_compiler_opaque(i64 noundef %6)
  %8 = load i64, ptr %4, align 8, !tbaa !7
  %9 = call i64 @mbedtls_ct_compiler_opaque(i64 noundef %8)
  %10 = xor i64 %7, %9
  store i64 %10, ptr %5, align 8, !tbaa !7
  %11 = load i64, ptr %5, align 8, !tbaa !7
  %12 = call i64 @mbedtls_ct_bool(i64 noundef %11)
  call void @llvm.lifetime.end.p0(i64 8, ptr %5) #5
  ret i64 %12
}

; Function Attrs: nounwind uwtable
define hidden void @mbedtls_ct_memcpy_if(i64 noundef %0, ptr noundef %1, ptr noundef %2, ptr noundef %3, i64 noundef %4) #0 {
  %6 = alloca i64, align 8
  %7 = alloca ptr, align 8
  %8 = alloca ptr, align 8
  %9 = alloca ptr, align 8
  %10 = alloca i64, align 8
  %11 = alloca i64, align 8
  %12 = alloca i64, align 8
  %13 = alloca i64, align 8
  %14 = alloca i64, align 8
  %15 = alloca i64, align 8
  store i64 %0, ptr %6, align 8, !tbaa !7
  store ptr %1, ptr %7, align 8, !tbaa !9
  store ptr %2, ptr %8, align 8, !tbaa !9
  store ptr %3, ptr %9, align 8, !tbaa !9
  store i64 %4, ptr %10, align 8, !tbaa !7
  call void @llvm.lifetime.start.p0(i64 8, ptr %11) #5
  %16 = load i64, ptr %6, align 8, !tbaa !7
  store i64 %16, ptr %11, align 8, !tbaa !7
  call void @llvm.lifetime.start.p0(i64 8, ptr %12) #5
  %17 = load i64, ptr %6, align 8, !tbaa !7
  %18 = call i64 @mbedtls_ct_compiler_opaque(i64 noundef %17)
  %19 = xor i64 %18, -1
  store i64 %19, ptr %12, align 8, !tbaa !7
  %20 = load ptr, ptr %9, align 8, !tbaa !9
  %21 = icmp eq ptr %20, null
  br i1 %21, label %22, label %24

22:                                               ; preds = %5
  %23 = load ptr, ptr %7, align 8, !tbaa !9
  store ptr %23, ptr %9, align 8, !tbaa !9
  br label %24

24:                                               ; preds = %22, %5
  call void @llvm.lifetime.start.p0(i64 8, ptr %13) #5
  store i64 0, ptr %13, align 8, !tbaa !7
  br label %25

25:                                               ; preds = %49, %24
  %26 = load i64, ptr %13, align 8, !tbaa !7
  %27 = add i64 %26, 8
  %28 = load i64, ptr %10, align 8, !tbaa !7
  %29 = icmp ule i64 %27, %28
  br i1 %29, label %30, label %52

30:                                               ; preds = %25
  call void @llvm.lifetime.start.p0(i64 8, ptr %14) #5
  %31 = load ptr, ptr %8, align 8, !tbaa !9
  %32 = load i64, ptr %13, align 8, !tbaa !7
  %33 = getelementptr inbounds nuw i8, ptr %31, i64 %32
  %34 = call i64 @mbedtls_get_unaligned_uint64(ptr noundef %33)
  %35 = load i64, ptr %11, align 8, !tbaa !7
  %36 = and i64 %34, %35
  store i64 %36, ptr %14, align 8, !tbaa !7
  call void @llvm.lifetime.start.p0(i64 8, ptr %15) #5
  %37 = load ptr, ptr %9, align 8, !tbaa !9
  %38 = load i64, ptr %13, align 8, !tbaa !7
  %39 = getelementptr inbounds nuw i8, ptr %37, i64 %38
  %40 = call i64 @mbedtls_get_unaligned_uint64(ptr noundef %39)
  %41 = load i64, ptr %12, align 8, !tbaa !7
  %42 = and i64 %40, %41
  store i64 %42, ptr %15, align 8, !tbaa !7
  %43 = load ptr, ptr %7, align 8, !tbaa !9
  %44 = load i64, ptr %13, align 8, !tbaa !7
  %45 = getelementptr inbounds nuw i8, ptr %43, i64 %44
  %46 = load i64, ptr %14, align 8, !tbaa !7
  %47 = load i64, ptr %15, align 8, !tbaa !7
  %48 = or i64 %46, %47
  call void @mbedtls_put_unaligned_uint64(ptr noundef %45, i64 noundef %48)
  call void @llvm.lifetime.end.p0(i64 8, ptr %15) #5
  call void @llvm.lifetime.end.p0(i64 8, ptr %14) #5
  br label %49

49:                                               ; preds = %30
  %50 = load i64, ptr %13, align 8, !tbaa !7
  %51 = add i64 %50, 8
  store i64 %51, ptr %13, align 8, !tbaa !7
  br label %25, !llvm.loop !20

52:                                               ; preds = %25
  br label %53

53:                                               ; preds = %77, %52
  %54 = load i64, ptr %13, align 8, !tbaa !7
  %55 = load i64, ptr %10, align 8, !tbaa !7
  %56 = icmp ult i64 %54, %55
  br i1 %56, label %57, label %80

57:                                               ; preds = %53
  %58 = load ptr, ptr %8, align 8, !tbaa !9
  %59 = load i64, ptr %13, align 8, !tbaa !7
  %60 = getelementptr inbounds nuw i8, ptr %58, i64 %59
  %61 = load i8, ptr %60, align 1, !tbaa !13
  %62 = zext i8 %61 to i64
  %63 = load i64, ptr %11, align 8, !tbaa !7
  %64 = and i64 %62, %63
  %65 = load ptr, ptr %9, align 8, !tbaa !9
  %66 = load i64, ptr %13, align 8, !tbaa !7
  %67 = getelementptr inbounds nuw i8, ptr %65, i64 %66
  %68 = load i8, ptr %67, align 1, !tbaa !13
  %69 = zext i8 %68 to i64
  %70 = load i64, ptr %12, align 8, !tbaa !7
  %71 = and i64 %69, %70
  %72 = or i64 %64, %71
  %73 = trunc i64 %72 to i8
  %74 = load ptr, ptr %7, align 8, !tbaa !9
  %75 = load i64, ptr %13, align 8, !tbaa !7
  %76 = getelementptr inbounds nuw i8, ptr %74, i64 %75
  store i8 %73, ptr %76, align 1, !tbaa !13
  br label %77

77:                                               ; preds = %57
  %78 = load i64, ptr %13, align 8, !tbaa !7
  %79 = add i64 %78, 1
  store i64 %79, ptr %13, align 8, !tbaa !7
  br label %53, !llvm.loop !21

80:                                               ; preds = %53
  call void @llvm.lifetime.end.p0(i64 8, ptr %13) #5
  call void @llvm.lifetime.end.p0(i64 8, ptr %12) #5
  call void @llvm.lifetime.end.p0(i64 8, ptr %11) #5
  ret void
}

; Function Attrs: inlinehint nounwind uwtable
define internal i64 @mbedtls_ct_uint_eq(i64 noundef %0, i64 noundef %1) #2 {
  %3 = alloca i64, align 8
  %4 = alloca i64, align 8
  store i64 %0, ptr %3, align 8, !tbaa !7
  store i64 %1, ptr %4, align 8, !tbaa !7
  %5 = load i64, ptr %3, align 8, !tbaa !7
  %6 = load i64, ptr %4, align 8, !tbaa !7
  %7 = call i64 @mbedtls_ct_uint_ne(i64 noundef %5, i64 noundef %6)
  %8 = xor i64 %7, -1
  ret i64 %8
}

; Function Attrs: nounwind uwtable
define hidden void @mbedtls_ct_memcpy_offset(ptr noundef %0, ptr noundef %1, i64 noundef %2, i64 noundef %3, i64 noundef %4, i64 noundef %5) #0 {
  %7 = alloca ptr, align 8
  %8 = alloca ptr, align 8
  %9 = alloca i64, align 8
  %10 = alloca i64, align 8
  %11 = alloca i64, align 8
  %12 = alloca i64, align 8
  %13 = alloca i64, align 8
  store ptr %0, ptr %7, align 8, !tbaa !9
  store ptr %1, ptr %8, align 8, !tbaa !9
  store i64 %2, ptr %9, align 8, !tbaa !7
  store i64 %3, ptr %10, align 8, !tbaa !7
  store i64 %4, ptr %11, align 8, !tbaa !7
  store i64 %5, ptr %12, align 8, !tbaa !7
  call void @llvm.lifetime.start.p0(i64 8, ptr %13) #5
  %14 = load i64, ptr %10, align 8, !tbaa !7
  store i64 %14, ptr %13, align 8, !tbaa !7
  br label %15

15:                                               ; preds = %28, %6
  %16 = load i64, ptr %13, align 8, !tbaa !7
  %17 = load i64, ptr %11, align 8, !tbaa !7
  %18 = icmp ule i64 %16, %17
  br i1 %18, label %19, label %31

19:                                               ; preds = %15
  %20 = load i64, ptr %13, align 8, !tbaa !7
  %21 = load i64, ptr %9, align 8, !tbaa !7
  %22 = call i64 @mbedtls_ct_uint_eq(i64 noundef %20, i64 noundef %21)
  %23 = load ptr, ptr %7, align 8, !tbaa !9
  %24 = load ptr, ptr %8, align 8, !tbaa !9
  %25 = load i64, ptr %13, align 8, !tbaa !7
  %26 = getelementptr inbounds nuw i8, ptr %24, i64 %25
  %27 = load i64, ptr %12, align 8, !tbaa !7
  call void @mbedtls_ct_memcpy_if(i64 noundef %22, ptr noundef %23, ptr noundef %26, ptr noundef null, i64 noundef %27)
  br label %28

28:                                               ; preds = %19
  %29 = load i64, ptr %13, align 8, !tbaa !7
  %30 = add i64 %29, 1
  store i64 %30, ptr %13, align 8, !tbaa !7
  br label %15, !llvm.loop !23

31:                                               ; preds = %15
  call void @llvm.lifetime.end.p0(i64 8, ptr %13) #5
  ret void
}