; Function Attrs: nounwind uwtable
define hidden void @mbedtls_ct_memcpy_offset(ptr noundef captures(none) %0, ptr noundef readonly captures(none) %1, i64 noundef %2, i64 noundef %3, i64 noundef %4, i64 noundef %5) local_unnamed_addr #1 {
  %.not9 = icmp ugt i64 %3, %4
  br i1 %.not9, label %._crit_edge, label %.lr.ph

.lr.ph:                                           ; preds = %6
  %.not31.i = icmp ult i64 %5, 8
  br i1 %.not31.i, label %.lr.ph.split.us, label %.lr.ph.i.preheader

.lr.ph.split.us:                                  ; preds = %.lr.ph
  %.not11 = icmp eq i64 %5, 0
  br i1 %.not11, label %.preheader.i.us, label %.preheader.i.us.us

.preheader.i.us.us:                               ; preds = %.lr.ph.split.us, %mbedtls_ct_memcpy_if.exit.loopexit.us.us
  %.010.us.us = phi i64 [ %26, %mbedtls_ct_memcpy_if.exit.loopexit.us.us ], [ %3, %.lr.ph.split.us ]
  %7 = tail call i64 asm sideeffect "", "=r,0,~{dirflag},~{fpsr},~{flags}"(i64 %.010.us.us) #3, !srcloc !13
  %8 = tail call i64 asm sideeffect "", "=r,0,~{dirflag},~{fpsr},~{flags}"(i64 %2) #3, !srcloc !13
  %9 = xor i64 %8, %7
  %10 = tail call i64 asm sideeffect "mov  $1, $0                                \0A\09neg  $0                                      \0A\09or   $1, $0                                \0A\09sar  $$63, $0                                 \0A\09", "=&{ax},{di},~{dirflag},~{fpsr},~{flags}"(i64 %9) #3, !srcloc !16
  %11 = xor i64 %10, -1
  %12 = getelementptr inbounds nuw i8, ptr %1, i64 %.010.us.us
  %13 = tail call i64 asm sideeffect "", "=r,0,~{dirflag},~{fpsr},~{flags}"(i64 %11) #3, !srcloc !13
  %14 = xor i64 %13, -1
  br label %.lr.ph34.i.us.us

.lr.ph34.i.us.us:                                 ; preds = %.preheader.i.us.us, %.lr.ph34.i.us.us
  %.133.i.us.us = phi i64 [ %25, %.lr.ph34.i.us.us ], [ 0, %.preheader.i.us.us ]
  %15 = getelementptr inbounds nuw i8, ptr %12, i64 %.133.i.us.us
  %16 = load i8, ptr %15, align 1, !tbaa !3
  %17 = zext i8 %16 to i64
  %18 = and i64 %17, %11
  %19 = getelementptr inbounds nuw i8, ptr %0, i64 %.133.i.us.us
  %20 = load i8, ptr %19, align 1, !tbaa !3
  %21 = zext i8 %20 to i64
  %22 = and i64 %21, %14
  %23 = or i64 %22, %18
  %24 = trunc nuw i64 %23 to i8
  store i8 %24, ptr %19, align 1, !tbaa !3
  %25 = add nuw nsw i64 %.133.i.us.us, 1
  %exitcond.not.i.us.us = icmp eq i64 %25, %5
  br i1 %exitcond.not.i.us.us, label %mbedtls_ct_memcpy_if.exit.loopexit.us.us, label %.lr.ph34.i.us.us, !llvm.loop !15

mbedtls_ct_memcpy_if.exit.loopexit.us.us:         ; preds = %.lr.ph34.i.us.us
  %26 = add i64 %.010.us.us, 1
  %.not.us.us = icmp ugt i64 %26, %4
  br i1 %.not.us.us, label %._crit_edge, label %.preheader.i.us.us, !llvm.loop !17

.preheader.i.us:                                  ; preds = %.lr.ph.split.us, %.preheader.i.us
  %.010.us = phi i64 [ %33, %.preheader.i.us ], [ %3, %.lr.ph.split.us ]
  %27 = tail call i64 asm sideeffect "", "=r,0,~{dirflag},~{fpsr},~{flags}"(i64 %.010.us) #3, !srcloc !13
  %28 = tail call i64 asm sideeffect "", "=r,0,~{dirflag},~{fpsr},~{flags}"(i64 %2) #3, !srcloc !13
  %29 = xor i64 %28, %27
  %30 = tail call i64 asm sideeffect "mov  $1, $0                                \0A\09neg  $0                                      \0A\09or   $1, $0                                \0A\09sar  $$63, $0                                 \0A\09", "=&{ax},{di},~{dirflag},~{fpsr},~{flags}"(i64 %29) #3, !srcloc !16
  %31 = xor i64 %30, -1
  %32 = tail call i64 asm sideeffect "", "=r,0,~{dirflag},~{fpsr},~{flags}"(i64 %31) #3, !srcloc !13
  %33 = add i64 %.010.us, 1
  %.not.us = icmp ugt i64 %33, %4
  br i1 %.not.us, label %._crit_edge, label %.preheader.i.us, !llvm.loop !17

.lr.ph.i.preheader:                               ; preds = %.lr.ph, %mbedtls_ct_memcpy_if.exit
  %.010 = phi i64 [ %61, %mbedtls_ct_memcpy_if.exit ], [ %3, %.lr.ph ]
  %34 = tail call i64 asm sideeffect "", "=r,0,~{dirflag},~{fpsr},~{flags}"(i64 %.010) #3, !srcloc !13
  %35 = tail call i64 asm sideeffect "", "=r,0,~{dirflag},~{fpsr},~{flags}"(i64 %2) #3, !srcloc !13
  %36 = xor i64 %35, %34
  %37 = tail call i64 asm sideeffect "mov  $1, $0                                \0A\09neg  $0                                      \0A\09or   $1, $0                                \0A\09sar  $$63, $0                                 \0A\09", "=&{ax},{di},~{dirflag},~{fpsr},~{flags}"(i64 %36) #3, !srcloc !16
  %38 = xor i64 %37, -1
  %39 = getelementptr inbounds nuw i8, ptr %1, i64 %.010
  %40 = tail call i64 asm sideeffect "", "=r,0,~{dirflag},~{fpsr},~{flags}"(i64 %38) #3, !srcloc !13
  %41 = xor i64 %40, -1
  br label %.lr.ph.i

.preheader.i.loopexit:                            ; preds = %.lr.ph.i
  %42 = icmp ult i64 %43, %5
  br i1 %42, label %.lr.ph34.i, label %mbedtls_ct_memcpy_if.exit

.lr.ph.i:                                         ; preds = %.lr.ph.i.preheader, %.lr.ph.i
  %43 = phi i64 [ %49, %.lr.ph.i ], [ 8, %.lr.ph.i.preheader ]
  %.02732.i = phi i64 [ %43, %.lr.ph.i ], [ 0, %.lr.ph.i.preheader ]
  %44 = getelementptr inbounds nuw i8, ptr %39, i64 %.02732.i
  %.0.copyload.i.i = load i64, ptr %44, align 1
  %45 = and i64 %.0.copyload.i.i, %38
  %46 = getelementptr inbounds nuw i8, ptr %0, i64 %.02732.i
  %.0.copyload.i30.i = load i64, ptr %46, align 1
  %47 = and i64 %.0.copyload.i30.i, %41
  %48 = or i64 %47, %45
  store i64 %48, ptr %46, align 1
  %49 = add i64 %43, 8
  %.not.i = icmp ugt i64 %49, %5
  br i1 %.not.i, label %.preheader.i.loopexit, label %.lr.ph.i, !llvm.loop !14

.lr.ph34.i:                                       ; preds = %.preheader.i.loopexit, %.lr.ph34.i
  %.133.i = phi i64 [ %60, %.lr.ph34.i ], [ %43, %.preheader.i.loopexit ]
  %50 = getelementptr inbounds nuw i8, ptr %39, i64 %.133.i
  %51 = load i8, ptr %50, align 1, !tbaa !3
  %52 = zext i8 %51 to i64
  %53 = and i64 %52, %38
  %54 = getelementptr inbounds nuw i8, ptr %0, i64 %.133.i
  %55 = load i8, ptr %54, align 1, !tbaa !3
  %56 = zext i8 %55 to i64
  %57 = and i64 %56, %41
  %58 = or i64 %57, %53
  %59 = trunc nuw i64 %58 to i8
  store i8 %59, ptr %54, align 1, !tbaa !3
  %60 = add nuw i64 %.133.i, 1
  %exitcond.not.i = icmp eq i64 %60, %5
  br i1 %exitcond.not.i, label %mbedtls_ct_memcpy_if.exit, label %.lr.ph34.i, !llvm.loop !15

mbedtls_ct_memcpy_if.exit:                        ; preds = %.lr.ph34.i, %.preheader.i.loopexit
  %61 = add i64 %.010, 1
  %.not = icmp ugt i64 %61, %4
  br i1 %.not, label %._crit_edge, label %.lr.ph.i.preheader, !llvm.loop !17

._crit_edge:                                      ; preds = %mbedtls_ct_memcpy_if.exit, %mbedtls_ct_memcpy_if.exit.loopexit.us.us, %.preheader.i.us, %6
  ret void
}